target datalayout = "e-m:e-p270:32:32-p271:32:32-p272:64:64-i64:64-i128:128-f80:128-n8:16:32:64-S128"
target triple = "x86_64-pc-linux-gnu"

%struct.slabclass_t = type { i32, i32, ptr, i32, i32, ptr, i32 }
%union.pthread_mutex_t = type { %struct.__pthread_mutex_s }
%struct.__pthread_mutex_s = type { i32, i32, i32, i32, i32, i16, i16, %struct.__pthread_internal_list }
%struct.__pthread_internal_list = type { ptr, ptr }

@slabclass = internal global [64 x %struct.slabclass_t] zeroinitializer, align 16
@mem_limit = internal global i64 0, align 8
@mem_malloced = internal global i64 0, align 8
@slabs_lock = internal global %union.pthread_mutex_t zeroinitializer, align 8

; Function Attrs: nounwind uwtable
define dso_local i32 @slabs_available_chunks(i32 noundef %0, ptr noundef %1, ptr noundef %2) #0 {
  %4 = alloca i32, align 4
  %5 = alloca ptr, align 8
  %6 = alloca ptr, align 8
  %7 = alloca i32, align 4
  %8 = alloca ptr, align 8
  store i32 %0, ptr %4, align 4, !tbaa !8
  store ptr %1, ptr %5, align 8, !tbaa !56
  store ptr %2, ptr %6, align 8, !tbaa !35
  call void @llvm.lifetime.start.p0(i64 4, ptr %7) #9
  call void @llvm.lifetime.start.p0(i64 8, ptr %8) #9
  %9 = call i32 @pthread_mutex_lock(ptr noundef @slabs_lock) #9
  %10 = load i32, ptr %4, align 4, !tbaa !8
  %11 = zext i32 %10 to i64
  %12 = getelementptr inbounds nuw [64 x %struct.slabclass_t], ptr @slabclass, i64 0, i64 %11
  store ptr %12, ptr %8, align 8, !tbaa !25
  %13 = load ptr, ptr %8, align 8, !tbaa !25
  %14 = getelementptr inbounds nuw %struct.slabclass_t, ptr %13, i32 0, i32 3
  %15 = load i32, ptr %14, align 8, !tbaa !31
  store i32 %15, ptr %7, align 4, !tbaa !8
  %16 = load ptr, ptr %5, align 8, !tbaa !56
  %17 = icmp ne ptr %16, null
  br i1 %17, label %18, label %26

18:                                               ; preds = %3
  %19 = load i64, ptr @mem_malloced, align 8, !tbaa !4
  %20 = load i64, ptr @mem_limit, align 8, !tbaa !4
  %21 = icmp uge i64 %19, %20
  %22 = select i1 %21, i32 1, i32 0
  %23 = icmp ne i32 %22, 0
  %24 = load ptr, ptr %5, align 8, !tbaa !56
  %25 = zext i1 %23 to i8
  store i8 %25, ptr %24, align 1, !tbaa !34
  br label %26

26:                                               ; preds = %18, %3
  %27 = load ptr, ptr %6, align 8, !tbaa !35
  %28 = icmp ne ptr %27, null
  br i1 %28, label %29, label %34

29:                                               ; preds = %26
  %30 = load ptr, ptr %8, align 8, !tbaa !25
  %31 = getelementptr inbounds nuw %struct.slabclass_t, ptr %30, i32 0, i32 1
  %32 = load i32, ptr %31, align 4, !tbaa !44
  %33 = load ptr, ptr %6, align 8, !tbaa !35
  store i32 %32, ptr %33, align 4, !tbaa !8
  br label %34

34:                                               ; preds = %29, %26
  %35 = call i32 @pthread_mutex_unlock(ptr noundef @slabs_lock) #9
  %36 = load i32, ptr %7, align 4, !tbaa !8
  call void @llvm.lifetime.end.p0(i64 8, ptr %8) #9
  call void @llvm.lifetime.end.p0(i64 4, ptr %7) #9
  ret i32 %36
}