; Function Attrs: nounwind uwtable
define dso_local i32 @slabs_available_chunks(i32 noundef %0, ptr noundef writeonly captures(address_is_null) %1, ptr noundef writeonly captures(address_is_null) %2) local_unnamed_addr #4 {
  %4 = tail call i32 @pthread_mutex_lock(ptr noundef nonnull @slabs_lock) #21
  %5 = zext i32 %0 to i64
  %6 = getelementptr inbounds nuw [64 x %struct.slabclass_t], ptr @slabclass, i64 0, i64 %5
  %7 = getelementptr inbounds nuw i8, ptr %6, i64 16
  %8 = load i32, ptr %7, align 8, !tbaa !23
  %.not = icmp eq ptr %1, null
  br i1 %.not, label %14, label %9

9:                                                ; preds = %3
  %10 = load i64, ptr @mem_malloced, align 8, !tbaa !31
  %11 = load i64, ptr @mem_limit, align 8, !tbaa !31
  %12 = icmp uge i64 %10, %11
  %13 = zext i1 %12 to i8
  store i8 %13, ptr %1, align 1, !tbaa !48
  br label %14

14:                                               ; preds = %9, %3
  %.not8 = icmp eq ptr %2, null
  br i1 %.not8, label %18, label %15

15:                                               ; preds = %14
  %16 = getelementptr inbounds nuw i8, ptr %6, i64 4
  %17 = load i32, ptr %16, align 4, !tbaa !38
  store i32 %17, ptr %2, align 4, !tbaa !17
  br label %18

18:                                               ; preds = %15, %14
  %19 = tail call i32 @pthread_mutex_unlock(ptr noundef nonnull @slabs_lock) #21
  ret i32 %8
}